target datalayout = "e-m:e-p270:32:32-p271:32:32-p272:64:64-i64:64-i128:128-f80:128-n8:16:32:64-S128"
target triple = "x86_64-pc-linux-gnu"

@hf_fmp_cmd = internal global i32 0, align 4
@.str.285 = private unnamed_addr constant [17 x i8] c"COMMIT_SPECIFIED\00", align 1
@.str.286 = private unnamed_addr constant [18 x i8] c"RELEASE_SPECIFIED\00", align 1
@.str.287 = private unnamed_addr constant [12 x i8] c"RELEASE_ALL\00", align 1
@.str.288 = private unnamed_addr constant [11 x i8] c"CLOSE_FILE\00", align 1
@.str.289 = private unnamed_addr constant [12 x i8] c"UPDATE_TIME\00", align 1
@.str.290 = private unnamed_addr constant [12 x i8] c"ACCESS_TIME\00", align 1
@.str.291 = private unnamed_addr constant [8 x i8] c"UNKNOWN\00", align 1
@.str.292 = private unnamed_addr constant [4 x i8] c" | \00", align 1
@.str.293 = private unnamed_addr constant [21 x i8] c"No command specified\00", align 1
@.str.294 = private unnamed_addr constant [3 x i8] c"%s\00", align 1

; Function Attrs: null_pointer_is_valid sspstrong uwtable
define internal i32 @dissect_fmp_flushCmd(ptr noundef %0, i32 noundef %1, ptr noundef %2) #0 {
  %4 = alloca ptr, align 8
  %5 = alloca i32, align 4
  %6 = alloca ptr, align 8
  %7 = alloca i32, align 4
  %8 = alloca [256 x i8], align 16
  %9 = alloca i32, align 4
  %10 = alloca i32, align 4
  store ptr %0, ptr %4, align 8
  store i32 %1, ptr %5, align 4
  store ptr %2, ptr %6, align 8
  call void @llvm.lifetime.start.p0(i64 4, ptr %7) #4
  call void @llvm.lifetime.start.p0(i64 256, ptr %8) #4
  call void @llvm.lifetime.start.p0(i64 4, ptr %9) #4
  call void @llvm.lifetime.start.p0(i64 4, ptr %10) #4
  %11 = load ptr, ptr %6, align 8
  %12 = icmp ne ptr %11, null
  br i1 %12, label %13, label %86

13:                                               ; preds = %3
  %14 = load ptr, ptr %4, align 8
  %15 = load i32, ptr %5, align 4
  %16 = call i32 @tvb_get_ntohl(ptr noundef %14, i32 noundef %15)
  store i32 %16, ptr %7, align 4
  %17 = getelementptr [256 x i8], ptr %8, i64 0, i64 0
  store i8 0, ptr %17, align 16
  store i32 0, ptr %10, align 4
  br label %18

18:                                               ; preds = %68, %13
  %19 = load i32, ptr %7, align 4
  %20 = icmp ne i32 %19, 0
  br i1 %20, label %21, label %24

21:                                               ; preds = %18
  %22 = load i32, ptr %10, align 4
  %23 = icmp slt i32 %22, 32
  br label %24

24:                                               ; preds = %21, %18
  %25 = phi i1 [ false, %18 ], [ %23, %21 ]
  br i1 %25, label %26, label %71

26:                                               ; preds = %24
  %27 = load i32, ptr %10, align 4
  %28 = shl i32 1, %27
  store i32 %28, ptr %9, align 4
  %29 = load i32, ptr %7, align 4
  %30 = load i32, ptr %9, align 4
  %31 = and i32 %29, %30
  %32 = icmp ne i32 %31, 0
  br i1 %32, label %33, label %67

33:                                               ; preds = %26
  %34 = load i32, ptr %9, align 4
  switch i32 %34, label %53 [
    i32 1, label %35
    i32 2, label %38
    i32 4, label %41
    i32 8, label %44
    i32 16, label %47
    i32 32, label %50
  ]

35:                                               ; preds = %33
  %36 = getelementptr inbounds [256 x i8], ptr %8, i64 0, i64 0
  %37 = call i64 @g_strlcat(ptr noundef %36, ptr noundef @.str.285, i64 noundef 256)
  br label %56

38:                                               ; preds = %33
  %39 = getelementptr inbounds [256 x i8], ptr %8, i64 0, i64 0
  %40 = call i64 @g_strlcat(ptr noundef %39, ptr noundef @.str.286, i64 noundef 256)
  br label %56

41:                                               ; preds = %33
  %42 = getelementptr inbounds [256 x i8], ptr %8, i64 0, i64 0
  %43 = call i64 @g_strlcat(ptr noundef %42, ptr noundef @.str.287, i64 noundef 256)
  br label %56

44:                                               ; preds = %33
  %45 = getelementptr inbounds [256 x i8], ptr %8, i64 0, i64 0
  %46 = call i64 @g_strlcat(ptr noundef %45, ptr noundef @.str.288, i64 noundef 256)
  br label %56

47:                                               ; preds = %33
  %48 = getelementptr inbounds [256 x i8], ptr %8, i64 0, i64 0
  %49 = call i64 @g_strlcat(ptr noundef %48, ptr noundef @.str.289, i64 noundef 256)
  br label %56

50:                                               ; preds = %33
  %51 = getelementptr inbounds [256 x i8], ptr %8, i64 0, i64 0
  %52 = call i64 @g_strlcat(ptr noundef %51, ptr noundef @.str.290, i64 noundef 256)
  br label %56

53:                                               ; preds = %33
  %54 = getelementptr inbounds [256 x i8], ptr %8, i64 0, i64 0
  %55 = call i64 @g_strlcat(ptr noundef %54, ptr noundef @.str.291, i64 noundef 256)
  br label %56

56:                                               ; preds = %53, %50, %47, %44, %41, %38, %35
  %57 = load i32, ptr %9, align 4
  %58 = xor i32 %57, -1
  %59 = load i32, ptr %7, align 4
  %60 = and i32 %59, %58
  store i32 %60, ptr %7, align 4
  %61 = load i32, ptr %7, align 4
  %62 = icmp ne i32 %61, 0
  br i1 %62, label %63, label %66

63:                                               ; preds = %56
  %64 = getelementptr inbounds [256 x i8], ptr %8, i64 0, i64 0
  %65 = call i64 @g_strlcat(ptr noundef %64, ptr noundef @.str.292, i64 noundef 256)
  br label %66

66:                                               ; preds = %63, %56
  br label %67

67:                                               ; preds = %66, %26
  br label %68

68:                                               ; preds = %67
  %69 = load i32, ptr %10, align 4
  %70 = add i32 %69, 1
  store i32 %70, ptr %10, align 4
  br label %18, !llvm.loop !15

71:                                               ; preds = %24
  %72 = getelementptr inbounds [256 x i8], ptr %8, i64 0, i64 0
  %73 = call i64 @strlen(ptr noundef %72) #5
  %74 = icmp eq i64 %73, 0
  br i1 %74, label %75, label %78

75:                                               ; preds = %71
  %76 = getelementptr inbounds [256 x i8], ptr %8, i64 0, i64 0
  %77 = call i64 @g_strlcpy(ptr noundef %76, ptr noundef @.str.293, i64 noundef 256)
  br label %78

78:                                               ; preds = %75, %71
  %79 = load ptr, ptr %6, align 8
  %80 = load i32, ptr @hf_fmp_cmd, align 4
  %81 = load ptr, ptr %4, align 8
  %82 = load i32, ptr %5, align 4
  %83 = load i32, ptr %7, align 4
  %84 = getelementptr inbounds [256 x i8], ptr %8, i64 0, i64 0
  %85 = call ptr (ptr, i32, ptr, i32, i32, i32, ptr, ...) @proto_tree_add_uint_format_value(ptr noundef %79, i32 noundef %80, ptr noundef %81, i32 noundef %82, i32 noundef 4, i32 noundef %83, ptr noundef @.str.294, ptr noundef %84)
  br label %86

86:                                               ; preds = %78, %3
  %87 = load i32, ptr %5, align 4
  %88 = add i32 %87, 4
  store i32 %88, ptr %5, align 4
  %89 = load i32, ptr %5, align 4
  call void @llvm.lifetime.end.p0(i64 4, ptr %10) #4
  call void @llvm.lifetime.end.p0(i64 4, ptr %9) #4
  call void @llvm.lifetime.end.p0(i64 256, ptr %8) #4
  call void @llvm.lifetime.end.p0(i64 4, ptr %7) #4
  ret i32 %89
}