; Function Attrs: null_pointer_is_valid sspstrong uwtable
define internal fastcc noundef i32 @dissect_fmp_flushCmd(ptr noundef %0, i32 noundef %1, ptr noundef %2) unnamed_addr #0 {
  %4 = alloca [256 x i8], align 16
  call void @llvm.lifetime.start.p0(i64 256, ptr nonnull %4) #3
  %.not = icmp eq ptr %2, null
  br i1 %.not, label %30, label %5

5:                                                ; preds = %3
  %6 = tail call i32 @tvb_get_ntohl(ptr noundef %0, i32 noundef %1)
  store i8 0, ptr %4, align 16
  %.not26 = icmp eq i32 %6, 0
  br i1 %.not26, label %._crit_edge.thread, label %.lr.ph

.lr.ph:                                           ; preds = %5, %22
  %.025 = phi i32 [ %23, %22 ], [ 0, %5 ]
  %.01824 = phi i32 [ %.1, %22 ], [ %6, %5 ]
  %7 = shl nuw i32 1, %.025
  %8 = and i32 %7, %.01824
  %.not22 = icmp eq i32 %8, 0
  br i1 %.not22, label %22, label %9

9:                                                ; preds = %.lr.ph
  switch i32 %7, label %15 [
    i32 1, label %16
    i32 2, label %10
    i32 4, label %11
    i32 8, label %12
    i32 16, label %13
    i32 32, label %14
  ]

10:                                               ; preds = %9
  br label %16

11:                                               ; preds = %9
  br label %16

12:                                               ; preds = %9
  br label %16

13:                                               ; preds = %9
  br label %16

14:                                               ; preds = %9
  br label %16

15:                                               ; preds = %9
  br label %16

16:                                               ; preds = %9, %15, %14, %13, %12, %11, %10
  %.str.291.sink = phi ptr [ @.str.291, %15 ], [ @.str.290, %14 ], [ @.str.289, %13 ], [ @.str.288, %12 ], [ @.str.287, %11 ], [ @.str.286, %10 ], [ @.str.285, %9 ]
  %17 = call i64 @g_strlcat(ptr noundef nonnull %4, ptr noundef nonnull %.str.291.sink, i64 noundef 256)
  %18 = xor i32 %7, -1
  %19 = and i32 %.01824, %18
  %.not23 = icmp eq i32 %19, 0
  br i1 %.not23, label %._crit_edge, label %20

20:                                               ; preds = %16
  %21 = call i64 @g_strlcat(ptr noundef nonnull %4, ptr noundef nonnull @.str.292, i64 noundef 256)
  br label %22

22:                                               ; preds = %.lr.ph, %20
  %.1 = phi i32 [ %19, %20 ], [ %.01824, %.lr.ph ]
  %23 = add nuw nsw i32 %.025, 1
  %24 = icmp samesign ult i32 %.025, 31
  br i1 %24, label %.lr.ph, label %._crit_edge, !llvm.loop !15

._crit_edge:                                      ; preds = %16, %22
  %.129 = phi i32 [ %.1, %22 ], [ 0, %16 ]
  %char0.pre = load i8, ptr %4, align 16
  %25 = icmp eq i8 %char0.pre, 0
  br i1 %25, label %._crit_edge.thread, label %27

._crit_edge.thread:                               ; preds = %5, %._crit_edge
  %.018.lcssa33 = phi i32 [ %.129, %._crit_edge ], [ 0, %5 ]
  %26 = call i64 @g_strlcpy(ptr noundef nonnull %4, ptr noundef nonnull @.str.293, i64 noundef 256)
  br label %27

27:                                               ; preds = %._crit_edge.thread, %._crit_edge
  %.018.lcssa32 = phi i32 [ %.018.lcssa33, %._crit_edge.thread ], [ %.129, %._crit_edge ]
  %28 = load i32, ptr @hf_fmp_cmd, align 4
  %29 = call ptr (ptr, i32, ptr, i32, i32, i32, ptr, ...) @proto_tree_add_uint_format_value(ptr noundef nonnull %2, i32 noundef %28, ptr noundef %0, i32 noundef %1, i32 noundef 4, i32 noundef %.018.lcssa32, ptr noundef nonnull @.str.294, ptr noundef nonnull %4)
  br label %30

30:                                               ; preds = %27, %3
  %31 = add i32 %1, 4
  call void @llvm.lifetime.end.p0(i64 256, ptr nonnull %4) #3
  ret i32 %31
}